; Function Attrs: mustprogress nounwind uwtable
define hidden void @_ZN5zxing12BinaryBitmapD2Ev(ptr noundef nonnull align 8 captures(none) dereferenceable(32) initializes((0, 8)) %0) unnamed_addr #1 align 2 {
  store ptr getelementptr inbounds nuw inrange(-16, 16) (i8, ptr @_ZTVN5zxing12BinaryBitmapE, i64 16), ptr %0, align 8, !tbaa !8
  %2 = getelementptr inbounds nuw i8, ptr %0, i64 24
  %3 = load ptr, ptr %2, align 8, !tbaa !14
  %.not.i = icmp eq ptr %3, null
  br i1 %.not.i, label %_ZN5zxing3RefINS_11UnicomBlockEED2Ev.exit, label %4

4:                                                ; preds = %1
  %5 = getelementptr inbounds nuw i8, ptr %3, i64 8
  %6 = load i32, ptr %5, align 8, !tbaa !3
  %7 = add i32 %6, -1
  store i32 %7, ptr %5, align 8, !tbaa !3
  %8 = icmp eq i32 %7, 0
  br i1 %8, label %9, label %_ZN5zxing3RefINS_11UnicomBlockEED2Ev.exit

9:                                                ; preds = %4
  store i32 -559026175, ptr %5, align 8, !tbaa !3
  %10 = load ptr, ptr %3, align 8, !tbaa !8
  %11 = getelementptr inbounds nuw i8, ptr %10, i64 8
  %12 = load ptr, ptr %11, align 8
  tail call void %12(ptr noundef nonnull align 8 dereferenceable(12) %3) #9
  br label %_ZN5zxing3RefINS_11UnicomBlockEED2Ev.exit

_ZN5zxing3RefINS_11UnicomBlockEED2Ev.exit:        ; preds = %1, %4, %9
  %13 = getelementptr inbounds nuw i8, ptr %0, i64 16
  %14 = load ptr, ptr %13, align 8, !tbaa !10
  %.not.i1 = icmp eq ptr %14, null
  br i1 %.not.i1, label %_ZN5zxing3RefINS_9BinarizerEED2Ev.exit, label %15

15:                                               ; preds = %_ZN5zxing3RefINS_11UnicomBlockEED2Ev.exit
  %16 = getelementptr inbounds nuw i8, ptr %14, i64 8
  %17 = load i32, ptr %16, align 8, !tbaa !3
  %18 = add i32 %17, -1
  store i32 %18, ptr %16, align 8, !tbaa !3
  %19 = icmp eq i32 %18, 0
  br i1 %19, label %20, label %_ZN5zxing3RefINS_9BinarizerEED2Ev.exit

20:                                               ; preds = %15
  store i32 -559026175, ptr %16, align 8, !tbaa !3
  %21 = load ptr, ptr %14, align 8, !tbaa !8
  %22 = getelementptr inbounds nuw i8, ptr %21, i64 8
  %23 = load ptr, ptr %22, align 8
  tail call void %23(ptr noundef nonnull align 8 dereferenceable(12) %14) #9
  br label %_ZN5zxing3RefINS_9BinarizerEED2Ev.exit

_ZN5zxing3RefINS_9BinarizerEED2Ev.exit:           ; preds = %_ZN5zxing3RefINS_11UnicomBlockEED2Ev.exit, %15, %20
  ret void
}